target datalayout = "e-m:e-p270:32:32-p271:32:32-p272:64:64-i64:64-i128:128-f80:128-n8:16:32:64-S128"
target triple = "x86_64-pc-linux-gnu"

; Function Attrs: nounwind uwtable
define void @stbtt_GetGlyphBitmapBoxSubpixel(ptr noundef %0, i32 noundef %1, float noundef %2, float noundef %3, float noundef %4, float noundef %5, ptr noundef %6, ptr noundef %7, ptr noundef %8, ptr noundef %9) #0 {
  %11 = alloca ptr, align 8
  %12 = alloca i32, align 4
  %13 = alloca float, align 4
  %14 = alloca float, align 4
  %15 = alloca float, align 4
  %16 = alloca float, align 4
  %17 = alloca ptr, align 8
  %18 = alloca ptr, align 8
  %19 = alloca ptr, align 8
  %20 = alloca ptr, align 8
  %21 = alloca i32, align 4
  %22 = alloca i32, align 4
  %23 = alloca i32, align 4
  %24 = alloca i32, align 4
  store ptr %0, ptr %11, align 8, !tbaa !476
  store i32 %1, ptr %12, align 4, !tbaa !13
  store float %2, ptr %13, align 4, !tbaa !4
  store float %3, ptr %14, align 4, !tbaa !4
  store float %4, ptr %15, align 4, !tbaa !4
  store float %5, ptr %16, align 4, !tbaa !4
  store ptr %6, ptr %17, align 8, !tbaa !21
  store ptr %7, ptr %18, align 8, !tbaa !21
  store ptr %8, ptr %19, align 8, !tbaa !21
  store ptr %9, ptr %20, align 8, !tbaa !21
  call void @llvm.lifetime.start.p0(i64 4, ptr %21) #10
  store i32 0, ptr %21, align 4, !tbaa !13
  call void @llvm.lifetime.start.p0(i64 4, ptr %22) #10
  store i32 0, ptr %22, align 4, !tbaa !13
  call void @llvm.lifetime.start.p0(i64 4, ptr %23) #10
  call void @llvm.lifetime.start.p0(i64 4, ptr %24) #10
  %25 = load ptr, ptr %11, align 8, !tbaa !476
  %26 = load i32, ptr %12, align 4, !tbaa !13
  %27 = call i32 @stbtt_GetGlyphBox(ptr noundef %25, i32 noundef %26, ptr noundef %21, ptr noundef %22, ptr noundef %23, ptr noundef %24)
  %28 = icmp ne i32 %27, 0
  br i1 %28, label %50, label %29

29:                                               ; preds = %10
  %30 = load ptr, ptr %17, align 8, !tbaa !21
  %31 = icmp ne ptr %30, null
  br i1 %31, label %32, label %34

32:                                               ; preds = %29
  %33 = load ptr, ptr %17, align 8, !tbaa !21
  store i32 0, ptr %33, align 4, !tbaa !13
  br label %34

34:                                               ; preds = %32, %29
  %35 = load ptr, ptr %18, align 8, !tbaa !21
  %36 = icmp ne ptr %35, null
  br i1 %36, label %37, label %39

37:                                               ; preds = %34
  %38 = load ptr, ptr %18, align 8, !tbaa !21
  store i32 0, ptr %38, align 4, !tbaa !13
  br label %39

39:                                               ; preds = %37, %34
  %40 = load ptr, ptr %19, align 8, !tbaa !21
  %41 = icmp ne ptr %40, null
  br i1 %41, label %42, label %44

42:                                               ; preds = %39
  %43 = load ptr, ptr %19, align 8, !tbaa !21
  store i32 0, ptr %43, align 4, !tbaa !13
  br label %44

44:                                               ; preds = %42, %39
  %45 = load ptr, ptr %20, align 8, !tbaa !21
  %46 = icmp ne ptr %45, null
  br i1 %46, label %47, label %49

47:                                               ; preds = %44
  %48 = load ptr, ptr %20, align 8, !tbaa !21
  store i32 0, ptr %48, align 4, !tbaa !13
  br label %49

49:                                               ; preds = %47, %44
  br label %105

50:                                               ; preds = %10
  %51 = load ptr, ptr %17, align 8, !tbaa !21
  %52 = icmp ne ptr %51, null
  br i1 %52, label %53, label %63

53:                                               ; preds = %50
  %54 = load i32, ptr %21, align 4, !tbaa !13
  %55 = sitofp i32 %54 to float
  %56 = load float, ptr %13, align 4, !tbaa !4
  %57 = load float, ptr %15, align 4, !tbaa !4
  %58 = call float @llvm.fmuladd.f32(float %55, float %56, float %57)
  %59 = fpext float %58 to double
  %60 = call double @llvm.floor.f64(double %59)
  %61 = fptosi double %60 to i32
  %62 = load ptr, ptr %17, align 8, !tbaa !21
  store i32 %61, ptr %62, align 4, !tbaa !13
  br label %63

63:                                               ; preds = %53, %50
  %64 = load ptr, ptr %18, align 8, !tbaa !21
  %65 = icmp ne ptr %64, null
  br i1 %65, label %66, label %77

66:                                               ; preds = %63
  %67 = load i32, ptr %24, align 4, !tbaa !13
  %68 = sub nsw i32 0, %67
  %69 = sitofp i32 %68 to float
  %70 = load float, ptr %14, align 4, !tbaa !4
  %71 = load float, ptr %16, align 4, !tbaa !4
  %72 = call float @llvm.fmuladd.f32(float %69, float %70, float %71)
  %73 = fpext float %72 to double
  %74 = call double @llvm.floor.f64(double %73)
  %75 = fptosi double %74 to i32
  %76 = load ptr, ptr %18, align 8, !tbaa !21
  store i32 %75, ptr %76, align 4, !tbaa !13
  br label %77

77:                                               ; preds = %66, %63
  %78 = load ptr, ptr %19, align 8, !tbaa !21
  %79 = icmp ne ptr %78, null
  br i1 %79, label %80, label %90

80:                                               ; preds = %77
  %81 = load i32, ptr %23, align 4, !tbaa !13
  %82 = sitofp i32 %81 to float
  %83 = load float, ptr %13, align 4, !tbaa !4
  %84 = load float, ptr %15, align 4, !tbaa !4
  %85 = call float @llvm.fmuladd.f32(float %82, float %83, float %84)
  %86 = fpext float %85 to double
  %87 = call double @llvm.ceil.f64(double %86)
  %88 = fptosi double %87 to i32
  %89 = load ptr, ptr %19, align 8, !tbaa !21
  store i32 %88, ptr %89, align 4, !tbaa !13
  br label %90

90:                                               ; preds = %80, %77
  %91 = load ptr, ptr %20, align 8, !tbaa !21
  %92 = icmp ne ptr %91, null
  br i1 %92, label %93, label %104

93:                                               ; preds = %90
  %94 = load i32, ptr %22, align 4, !tbaa !13
  %95 = sub nsw i32 0, %94
  %96 = sitofp i32 %95 to float
  %97 = load float, ptr %14, align 4, !tbaa !4
  %98 = load float, ptr %16, align 4, !tbaa !4
  %99 = call float @llvm.fmuladd.f32(float %96, float %97, float %98)
  %100 = fpext float %99 to double
  %101 = call double @llvm.ceil.f64(double %100)
  %102 = fptosi double %101 to i32
  %103 = load ptr, ptr %20, align 8, !tbaa !21
  store i32 %102, ptr %103, align 4, !tbaa !13
  br label %104

104:                                              ; preds = %93, %90
  br label %105

105:                                              ; preds = %104, %49
  call void @llvm.lifetime.end.p0(i64 4, ptr %24) #10
  call void @llvm.lifetime.end.p0(i64 4, ptr %23) #10
  call void @llvm.lifetime.end.p0(i64 4, ptr %22) #10
  call void @llvm.lifetime.end.p0(i64 4, ptr %21) #10
  ret void
}